target datalayout = "e-m:e-p270:32:32-p271:32:32-p272:64:64-i64:64-i128:128-f80:128-n8:16:32:64-S128"
target triple = "x86_64-pc-linux-gnu"

%struct._longobject = type { %struct.PyVarObject, [1 x i32] }
%struct.PyVarObject = type { %struct._object, i64 }
%struct._object = type { i64, ptr }
%struct._typeobject = type { %struct.PyVarObject, ptr, i64, i64, ptr, i64, ptr, ptr, ptr, ptr, ptr, ptr, ptr, ptr, ptr, ptr, ptr, ptr, ptr, i64, ptr, ptr, ptr, ptr, i64, ptr, ptr, ptr, ptr, ptr, ptr, ptr, ptr, ptr, i64, ptr, ptr, ptr, ptr, ptr, ptr, ptr, ptr, ptr, ptr, ptr, i32, ptr, ptr }

@PyFloat_Type = external global %struct._typeobject, align 8
@PyLong_Type = external global %struct._typeobject, align 8

; Function Attrs: inlinehint mustprogress nounwind uwtable
define linkonce_odr noundef i64 @_ZSt3absl(i64 noundef %0) #9 comdat {
  %2 = alloca i64, align 8
  store i64 %0, ptr %2, align 8
  %3 = load i64, ptr %2, align 8
  %4 = call i64 @llvm.abs.i64(i64 %3, i1 true)
  ret i64 %4
}

; Function Attrs: inlinehint mustprogress uwtable
define internal void @_ZL10_Py_DECREFP7_object(ptr noundef %0) #13 {
  %2 = alloca ptr, align 8
  store ptr %0, ptr %2, align 8
  %3 = load ptr, ptr %2, align 8
  %4 = getelementptr inbounds nuw %struct._object, ptr %3, i32 0, i32 0
  %5 = load i64, ptr %4, align 8
  %6 = add nsw i64 %5, -1
  store i64 %6, ptr %4, align 8
  %7 = icmp ne i64 %6, 0
  br i1 %7, label %8, label %9

8:                                                ; preds = %1
  br label %11

9:                                                ; preds = %1
  %10 = load ptr, ptr %2, align 8
  call void @_Py_Dealloc(ptr noundef %10)
  br label %11

11:                                               ; preds = %9, %8
  ret void
}

; Function Attrs: alwaysinline mustprogress nounwind uwtable
define linkonce_odr hidden noundef zeroext i1 @_ZN8nanobind6detail8load_intItLb0EEEbP7_objectjPT_(ptr noundef %0, i32 noundef %1, ptr noundef %2) #18 comdat personality ptr @__gxx_personality_v0 {
  %4 = alloca i1, align 1
  %5 = alloca ptr, align 8
  %6 = alloca i32, align 4
  %7 = alloca ptr, align 8
  %8 = alloca ptr, align 8
  %9 = alloca i64, align 8
  %10 = alloca i16, align 2
  %11 = alloca i32, align 4
  %12 = alloca i64, align 8
  %13 = alloca i16, align 2
  store ptr %0, ptr %5, align 8
  store i32 %1, ptr %6, align 4
  store ptr %2, ptr %7, align 8
  %14 = load ptr, ptr %5, align 8
  %15 = call noundef i32 @_ZL11_Py_IS_TYPEPK7_objectPK11_typeobject(ptr noundef %14, ptr noundef @PyLong_Type)
  %16 = icmp ne i32 %15, 0
  %17 = zext i1 %16 to i64
  %18 = call i64 @llvm.expect.i64(i64 %17, i64 1)
  %19 = icmp ne i64 %18, 0
  br i1 %19, label %20, label %76

20:                                               ; preds = %3
  call void @llvm.lifetime.start.p0(i64 8, ptr %8) #20
  %21 = load ptr, ptr %5, align 8
  store ptr %21, ptr %8, align 8
  %22 = load ptr, ptr %8, align 8
  %23 = invoke noundef zeroext i1 @_ZN8nanobind6detail25PyUnstable_Long_IsCompactEPK11_longobject(ptr noundef %22)
          to label %24 unwind label %79

24:                                               ; preds = %20
  %25 = zext i1 %23 to i64
  %26 = call i64 @llvm.expect.i64(i64 %25, i64 1)
  %27 = icmp ne i64 %26, 0
  br i1 %27, label %28, label %50

28:                                               ; preds = %24
  call void @llvm.lifetime.start.p0(i64 8, ptr %9) #20
  %29 = load ptr, ptr %8, align 8
  %30 = call noundef i64 @_ZN8nanobind6detail28PyUnstable_Long_CompactValueEPK11_longobject(ptr noundef %29)
  store i64 %30, ptr %9, align 8
  call void @llvm.lifetime.start.p0(i64 2, ptr %10) #20
  %31 = load i64, ptr %9, align 8
  %32 = trunc i64 %31 to i16
  store i16 %32, ptr %10, align 2
  %33 = load i64, ptr %9, align 8
  %34 = icmp slt i64 %33, 0
  br i1 %34, label %40, label %35

35:                                               ; preds = %28
  %36 = load i64, ptr %9, align 8
  %37 = load i16, ptr %10, align 2
  %38 = zext i16 %37 to i64
  %39 = icmp ne i64 %36, %38
  br label %40

40:                                               ; preds = %35, %28
  %41 = phi i1 [ true, %28 ], [ %39, %35 ]
  %42 = zext i1 %41 to i64
  %43 = call i64 @llvm.expect.i64(i64 %42, i64 0)
  %44 = icmp ne i64 %43, 0
  br i1 %44, label %45, label %46

45:                                               ; preds = %40
  store i1 false, ptr %4, align 1
  store i32 1, ptr %11, align 4
  br label %49

46:                                               ; preds = %40
  %47 = load i16, ptr %10, align 2
  %48 = load ptr, ptr %7, align 8
  store i16 %47, ptr %48, align 2
  store i1 true, ptr %4, align 1
  store i32 1, ptr %11, align 4
  br label %49

49:                                               ; preds = %46, %45
  call void @llvm.lifetime.end.p0(i64 2, ptr %10) #20
  call void @llvm.lifetime.end.p0(i64 8, ptr %9) #20
  br label %75

50:                                               ; preds = %24
  call void @llvm.lifetime.start.p0(i64 8, ptr %12) #20
  %51 = load ptr, ptr %5, align 8
  %52 = invoke i64 @PyLong_AsUnsignedLong(ptr noundef %51)
          to label %53 unwind label %79

53:                                               ; preds = %50
  store i64 %52, ptr %12, align 8
  %54 = load i64, ptr %12, align 8
  %55 = icmp eq i64 %54, -1
  br i1 %55, label %56, label %62

56:                                               ; preds = %53
  %57 = invoke ptr @PyErr_Occurred()
          to label %58 unwind label %79

58:                                               ; preds = %56
  %59 = icmp ne ptr %57, null
  br i1 %59, label %60, label %62

60:                                               ; preds = %58
  invoke void @PyErr_Clear()
          to label %61 unwind label %79

61:                                               ; preds = %60
  store i1 false, ptr %4, align 1
  store i32 1, ptr %11, align 4
  br label %74

62:                                               ; preds = %58, %53
  call void @llvm.lifetime.start.p0(i64 2, ptr %13) #20
  %63 = load i64, ptr %12, align 8
  %64 = trunc i64 %63 to i16
  store i16 %64, ptr %13, align 2
  %65 = load i64, ptr %12, align 8
  %66 = load i16, ptr %13, align 2
  %67 = zext i16 %66 to i64
  %68 = icmp ne i64 %65, %67
  br i1 %68, label %69, label %70

69:                                               ; preds = %62
  store i1 false, ptr %4, align 1
  store i32 1, ptr %11, align 4
  br label %73

70:                                               ; preds = %62
  %71 = load i16, ptr %13, align 2
  %72 = load ptr, ptr %7, align 8
  store i16 %71, ptr %72, align 2
  store i1 true, ptr %4, align 1
  store i32 1, ptr %11, align 4
  br label %73

73:                                               ; preds = %70, %69
  call void @llvm.lifetime.end.p0(i64 2, ptr %13) #20
  br label %74

74:                                               ; preds = %73, %61
  call void @llvm.lifetime.end.p0(i64 8, ptr %12) #20
  br label %75

75:                                               ; preds = %74, %49
  call void @llvm.lifetime.end.p0(i64 8, ptr %8) #20
  br label %77

76:                                               ; preds = %3
  store i1 false, ptr %4, align 1
  br label %77

77:                                               ; preds = %76, %75
  %78 = load i1, ptr %4, align 1
  ret i1 %78

79:                                               ; preds = %60, %56, %50, %20
  %80 = landingpad { ptr, i32 }
          catch ptr null
  %81 = extractvalue { ptr, i32 } %80, 0
  call void @__clang_call_terminate(ptr %81) #22
  unreachable
}

; Function Attrs: inlinehint mustprogress uwtable
define internal noundef i32 @_ZL19_PyObject_TypeCheckP7_objectP11_typeobject(ptr noundef %0, ptr noundef %1) #13 {
  %3 = alloca ptr, align 8
  %4 = alloca ptr, align 8
  store ptr %0, ptr %3, align 8
  store ptr %1, ptr %4, align 8
  %5 = load ptr, ptr %3, align 8
  %6 = load ptr, ptr %4, align 8
  %7 = call noundef i32 @_ZL11_Py_IS_TYPEPK7_objectPK11_typeobject(ptr noundef %5, ptr noundef %6)
  %8 = icmp ne i32 %7, 0
  br i1 %8, label %16, label %9

9:                                                ; preds = %2
  %10 = load ptr, ptr %3, align 8
  %11 = getelementptr inbounds nuw %struct._object, ptr %10, i32 0, i32 1
  %12 = load ptr, ptr %11, align 8
  %13 = load ptr, ptr %4, align 8
  %14 = call i32 @PyType_IsSubtype(ptr noundef %12, ptr noundef %13)
  %15 = icmp ne i32 %14, 0
  br label %16

16:                                               ; preds = %9, %2
  %17 = phi i1 [ true, %2 ], [ %15, %9 ]
  %18 = zext i1 %17 to i32
  ret i32 %18
}

; Function Attrs: alwaysinline mustprogress nounwind uwtable
define linkonce_odr hidden noundef i64 @_ZN8nanobind6detail28PyUnstable_Long_CompactValueEPK11_longobject(ptr noundef %0) #18 comdat {
  %2 = alloca ptr, align 8
  store ptr %0, ptr %2, align 8
  %3 = load ptr, ptr %2, align 8
  %4 = getelementptr inbounds nuw %struct.PyVarObject, ptr %3, i32 0, i32 1
  %5 = load i64, ptr %4, align 8
  %6 = load ptr, ptr %2, align 8
  %7 = getelementptr inbounds nuw %struct._longobject, ptr %6, i32 0, i32 1
  %8 = getelementptr inbounds [1 x i32], ptr %7, i64 0, i64 0
  %9 = load i32, ptr %8, align 8
  %10 = zext i32 %9 to i64
  %11 = mul nsw i64 %5, %10
  ret i64 %11
}

; Function Attrs: alwaysinline mustprogress uwtable
define linkonce_odr hidden noundef zeroext i1 @_ZN8nanobind6detail25PyUnstable_Long_IsCompactEPK11_longobject(ptr noundef %0) #17 comdat {
  %2 = alloca ptr, align 8
  store ptr %0, ptr %2, align 8
  %3 = load ptr, ptr %2, align 8
  %4 = getelementptr inbounds nuw %struct.PyVarObject, ptr %3, i32 0, i32 1
  %5 = load i64, ptr %4, align 8
  %6 = call noundef i64 @_ZSt3absl(i64 noundef %5)
  %7 = icmp sle i64 %6, 1
  ret i1 %7
}

; Function Attrs: inlinehint mustprogress nounwind uwtable
define internal noundef i32 @_ZL11_Py_IS_TYPEPK7_objectPK11_typeobject(ptr noundef %0, ptr noundef %1) #9 {
  %3 = alloca ptr, align 8
  %4 = alloca ptr, align 8
  store ptr %0, ptr %3, align 8
  store ptr %1, ptr %4, align 8
  %5 = load ptr, ptr %3, align 8
  %6 = getelementptr inbounds nuw %struct._object, ptr %5, i32 0, i32 1
  %7 = load ptr, ptr %6, align 8
  %8 = load ptr, ptr %4, align 8
  %9 = icmp eq ptr %7, %8
  %10 = zext i1 %9 to i32
  ret i32 %10
}

; Function Attrs: alwaysinline mustprogress nounwind uwtable
define linkonce_odr hidden noundef zeroext i1 @_ZN8nanobind6detail8load_intItLb1EEEbP7_objectjPT_(ptr noundef %0, i32 noundef %1, ptr noundef %2) #18 comdat personality ptr @__gxx_personality_v0 {
  %4 = alloca i1, align 1
  %5 = alloca ptr, align 8
  %6 = alloca i32, align 4
  %7 = alloca ptr, align 8
  %8 = alloca ptr, align 8
  %9 = alloca i64, align 8
  %10 = alloca i16, align 2
  %11 = alloca i32, align 4
  %12 = alloca i64, align 8
  %13 = alloca i16, align 2
  %14 = alloca ptr, align 8
  %15 = alloca i8, align 1
  store ptr %0, ptr %5, align 8
  store i32 %1, ptr %6, align 4
  store ptr %2, ptr %7, align 8
  %16 = load ptr, ptr %5, align 8
  %17 = call noundef i32 @_ZL11_Py_IS_TYPEPK7_objectPK11_typeobject(ptr noundef %16, ptr noundef @PyLong_Type)
  %18 = icmp ne i32 %17, 0
  %19 = zext i1 %18 to i64
  %20 = call i64 @llvm.expect.i64(i64 %19, i64 1)
  %21 = icmp ne i64 %20, 0
  br i1 %21, label %22, label %78

22:                                               ; preds = %3
  call void @llvm.lifetime.start.p0(i64 8, ptr %8) #20
  %23 = load ptr, ptr %5, align 8
  store ptr %23, ptr %8, align 8
  %24 = load ptr, ptr %8, align 8
  %25 = invoke noundef zeroext i1 @_ZN8nanobind6detail25PyUnstable_Long_IsCompactEPK11_longobject(ptr noundef %24)
          to label %26 unwind label %111

26:                                               ; preds = %22
  %27 = zext i1 %25 to i64
  %28 = call i64 @llvm.expect.i64(i64 %27, i64 1)
  %29 = icmp ne i64 %28, 0
  br i1 %29, label %30, label %52

30:                                               ; preds = %26
  call void @llvm.lifetime.start.p0(i64 8, ptr %9) #20
  %31 = load ptr, ptr %8, align 8
  %32 = call noundef i64 @_ZN8nanobind6detail28PyUnstable_Long_CompactValueEPK11_longobject(ptr noundef %31)
  store i64 %32, ptr %9, align 8
  call void @llvm.lifetime.start.p0(i64 2, ptr %10) #20
  %33 = load i64, ptr %9, align 8
  %34 = trunc i64 %33 to i16
  store i16 %34, ptr %10, align 2
  %35 = load i64, ptr %9, align 8
  %36 = icmp slt i64 %35, 0
  br i1 %36, label %42, label %37

37:                                               ; preds = %30
  %38 = load i64, ptr %9, align 8
  %39 = load i16, ptr %10, align 2
  %40 = zext i16 %39 to i64
  %41 = icmp ne i64 %38, %40
  br label %42

42:                                               ; preds = %37, %30
  %43 = phi i1 [ true, %30 ], [ %41, %37 ]
  %44 = zext i1 %43 to i64
  %45 = call i64 @llvm.expect.i64(i64 %44, i64 0)
  %46 = icmp ne i64 %45, 0
  br i1 %46, label %47, label %48

47:                                               ; preds = %42
  store i1 false, ptr %4, align 1
  store i32 1, ptr %11, align 4
  br label %51

48:                                               ; preds = %42
  %49 = load i16, ptr %10, align 2
  %50 = load ptr, ptr %7, align 8
  store i16 %49, ptr %50, align 2
  store i1 true, ptr %4, align 1
  store i32 1, ptr %11, align 4
  br label %51

51:                                               ; preds = %48, %47
  call void @llvm.lifetime.end.p0(i64 2, ptr %10) #20
  call void @llvm.lifetime.end.p0(i64 8, ptr %9) #20
  br label %77

52:                                               ; preds = %26
  call void @llvm.lifetime.start.p0(i64 8, ptr %12) #20
  %53 = load ptr, ptr %5, align 8
  %54 = invoke i64 @PyLong_AsUnsignedLong(ptr noundef %53)
          to label %55 unwind label %111

55:                                               ; preds = %52
  store i64 %54, ptr %12, align 8
  %56 = load i64, ptr %12, align 8
  %57 = icmp eq i64 %56, -1
  br i1 %57, label %58, label %64

58:                                               ; preds = %55
  %59 = invoke ptr @PyErr_Occurred()
          to label %60 unwind label %111

60:                                               ; preds = %58
  %61 = icmp ne ptr %59, null
  br i1 %61, label %62, label %64

62:                                               ; preds = %60
  invoke void @PyErr_Clear()
          to label %63 unwind label %111

63:                                               ; preds = %62
  store i1 false, ptr %4, align 1
  store i32 1, ptr %11, align 4
  br label %76

64:                                               ; preds = %60, %55
  call void @llvm.lifetime.start.p0(i64 2, ptr %13) #20
  %65 = load i64, ptr %12, align 8
  %66 = trunc i64 %65 to i16
  store i16 %66, ptr %13, align 2
  %67 = load i64, ptr %12, align 8
  %68 = load i16, ptr %13, align 2
  %69 = zext i16 %68 to i64
  %70 = icmp ne i64 %67, %69
  br i1 %70, label %71, label %72

71:                                               ; preds = %64
  store i1 false, ptr %4, align 1
  store i32 1, ptr %11, align 4
  br label %75

72:                                               ; preds = %64
  %73 = load i16, ptr %13, align 2
  %74 = load ptr, ptr %7, align 8
  store i16 %73, ptr %74, align 2
  store i1 true, ptr %4, align 1
  store i32 1, ptr %11, align 4
  br label %75

75:                                               ; preds = %72, %71
  call void @llvm.lifetime.end.p0(i64 2, ptr %13) #20
  br label %76

76:                                               ; preds = %75, %63
  call void @llvm.lifetime.end.p0(i64 8, ptr %12) #20
  br label %77

77:                                               ; preds = %76, %51
  call void @llvm.lifetime.end.p0(i64 8, ptr %8) #20
  br label %109

78:                                               ; preds = %3
  %79 = load i32, ptr %6, align 4
  %80 = and i32 %79, 1
  %81 = icmp ne i32 %80, 0
  br i1 %81, label %82, label %108

82:                                               ; preds = %78
  %83 = load ptr, ptr %5, align 8
  %84 = invoke noundef i32 @_ZL19_PyObject_TypeCheckP7_objectP11_typeobject(ptr noundef %83, ptr noundef @PyFloat_Type)
          to label %85 unwind label %111

85:                                               ; preds = %82
  %86 = icmp ne i32 %84, 0
  br i1 %86, label %108, label %87

87:                                               ; preds = %85
  call void @llvm.lifetime.start.p0(i64 8, ptr %14) #20
  %88 = load ptr, ptr %5, align 8
  %89 = invoke ptr @PyNumber_Long(ptr noundef %88)
          to label %90 unwind label %111

90:                                               ; preds = %87
  store ptr %89, ptr %14, align 8
  %91 = load ptr, ptr %14, align 8
  %92 = icmp ne ptr %91, null
  br i1 %92, label %93, label %102

93:                                               ; preds = %90
  call void @llvm.lifetime.start.p0(i64 1, ptr %15) #20
  %94 = load ptr, ptr %14, align 8
  %95 = load ptr, ptr %7, align 8
  %96 = call noundef zeroext i1 @_ZN8nanobind6detail8load_intItLb0EEEbP7_objectjPT_(ptr noundef %94, i32 noundef 0, ptr noundef %95) #20
  %97 = zext i1 %96 to i8
  store i8 %97, ptr %15, align 1
  %98 = load ptr, ptr %14, align 8
  invoke void @_ZL10_Py_DECREFP7_object(ptr noundef %98)
          to label %99 unwind label %111

99:                                               ; preds = %93
  %100 = load i8, ptr %15, align 1, !range !6, !noundef !7
  %101 = trunc i8 %100 to i1
  store i1 %101, ptr %4, align 1
  store i32 1, ptr %11, align 4
  call void @llvm.lifetime.end.p0(i64 1, ptr %15) #20
  br label %105

102:                                              ; preds = %90
  invoke void @PyErr_Clear()
          to label %103 unwind label %111

103:                                              ; preds = %102
  br label %104

104:                                              ; preds = %103
  store i32 0, ptr %11, align 4
  br label %105

105:                                              ; preds = %104, %99
  call void @llvm.lifetime.end.p0(i64 8, ptr %14) #20
  %106 = load i32, ptr %11, align 4
  switch i32 %106, label %114 [
    i32 0, label %107
    i32 1, label %109
  ]

107:                                              ; preds = %105
  br label %108

108:                                              ; preds = %107, %85, %78
  store i1 false, ptr %4, align 1
  br label %109

109:                                              ; preds = %108, %105, %77
  %110 = load i1, ptr %4, align 1
  ret i1 %110

111:                                              ; preds = %102, %93, %87, %82, %62, %58, %52, %22
  %112 = landingpad { ptr, i32 }
          catch ptr null
  %113 = extractvalue { ptr, i32 } %112, 0
  call void @__clang_call_terminate(ptr %113) #22
  unreachable

114:                                              ; preds = %105
  unreachable
}

; Function Attrs: mustprogress nounwind uwtable
define noundef zeroext i1 @_ZN8nanobind6detail8load_u16EP7_objecthPt(ptr noundef %0, i8 noundef zeroext %1, ptr noundef %2) #4 {
  %4 = alloca ptr, align 8
  %5 = alloca i8, align 1
  %6 = alloca ptr, align 8
  store ptr %0, ptr %4, align 8
  store i8 %1, ptr %5, align 1
  store ptr %2, ptr %6, align 8
  %7 = load ptr, ptr %4, align 8
  %8 = load i8, ptr %5, align 1
  %9 = zext i8 %8 to i32
  %10 = load ptr, ptr %6, align 8
  %11 = call noundef zeroext i1 @_ZN8nanobind6detail8load_intItLb1EEEbP7_objectjPT_(ptr noundef %7, i32 noundef %9, ptr noundef %10) #20
  ret i1 %11
}