; Function Attrs: mustprogress nounwind uwtable
define noundef zeroext i1 @_ZN8nanobind6detail8load_u16EP7_objecthPt(ptr noundef %0, i8 noundef zeroext %1, ptr noundef writeonly captures(none) %2) local_unnamed_addr #9 personality ptr @__gxx_personality_v0 {
  %4 = getelementptr i8, ptr %0, i64 8
  %.val4 = load ptr, ptr %4, align 8
  %.not = icmp eq ptr %.val4, @PyLong_Type
  br i1 %.not, label %5, label %24, !prof !4

5:                                                ; preds = %3
  %6 = getelementptr inbounds nuw i8, ptr %0, i64 16
  %7 = load i64, ptr %6, align 8
  %8 = tail call noundef i64 @llvm.abs.i64(i64 %7, i1 true)
  %9 = icmp samesign ult i64 %8, 2
  br i1 %9, label %10, label %16, !prof !4

10:                                               ; preds = %5
  %11 = getelementptr inbounds nuw i8, ptr %0, i64 24
  %12 = load i32, ptr %11, align 8
  %13 = zext i32 %12 to i64
  %14 = mul nsw i64 %7, %13
  %15 = icmp ult i64 %14, 65536
  br i1 %15, label %_ZN8nanobind6detail8load_intItLb1EEEbP7_objectjPT_.exit.sink.split, label %_ZN8nanobind6detail8load_intItLb1EEEbP7_objectjPT_.exit, !prof !4

16:                                               ; preds = %5
  %17 = invoke i64 @PyLong_AsUnsignedLong(ptr noundef nonnull %0)
          to label %18 unwind label %60

18:                                               ; preds = %16
  %19 = icmp eq i64 %17, -1
  br i1 %19, label %20, label %23

20:                                               ; preds = %18
  %21 = invoke ptr @PyErr_Occurred()
          to label %22 unwind label %60

22:                                               ; preds = %20
  %.not31.i = icmp eq ptr %21, null
  br i1 %.not31.i, label %_ZN8nanobind6detail8load_intItLb1EEEbP7_objectjPT_.exit, label %.invoke

23:                                               ; preds = %18
  %.not32.i = icmp ult i64 %17, 65536
  br i1 %.not32.i, label %_ZN8nanobind6detail8load_intItLb1EEEbP7_objectjPT_.exit.sink.split, label %_ZN8nanobind6detail8load_intItLb1EEEbP7_objectjPT_.exit

24:                                               ; preds = %3
  %25 = and i8 %1, 1
  %.not28.i = icmp eq i8 %25, 0
  %.not.i6 = icmp eq ptr %.val4, @PyFloat_Type
  %or.cond = or i1 %.not28.i, %.not.i6
  br i1 %or.cond, label %_ZN8nanobind6detail8load_intItLb1EEEbP7_objectjPT_.exit, label %26

26:                                               ; preds = %24
  %27 = invoke i32 @PyType_IsSubtype(ptr noundef %.val4, ptr noundef nonnull @PyFloat_Type)
          to label %_ZL19_PyObject_TypeCheckP7_objectP11_typeobject.exit unwind label %60

_ZL19_PyObject_TypeCheckP7_objectP11_typeobject.exit: ; preds = %26
  %.not15 = icmp eq i32 %27, 0
  br i1 %.not15, label %28, label %_ZN8nanobind6detail8load_intItLb1EEEbP7_objectjPT_.exit

28:                                               ; preds = %_ZL19_PyObject_TypeCheckP7_objectP11_typeobject.exit
  %29 = invoke ptr @PyNumber_Long(ptr noundef nonnull %0)
          to label %30 unwind label %60

30:                                               ; preds = %28
  %.not30.i.not = icmp eq ptr %29, null
  br i1 %.not30.i.not, label %.invoke, label %31

31:                                               ; preds = %30
  %32 = getelementptr i8, ptr %29, i64 8
  %.val = load ptr, ptr %32, align 8
  %.not16 = icmp eq ptr %.val, @PyLong_Type
  br i1 %.not16, label %33, label %_ZN8nanobind6detail8load_intItLb0EEEbP7_objectjPT_.exit, !prof !4

33:                                               ; preds = %31
  %34 = getelementptr inbounds nuw i8, ptr %29, i64 16
  %35 = load i64, ptr %34, align 8
  %36 = tail call noundef i64 @llvm.abs.i64(i64 %35, i1 true)
  %37 = icmp samesign ult i64 %36, 2
  br i1 %37, label %38, label %44, !prof !4

38:                                               ; preds = %33
  %39 = getelementptr inbounds nuw i8, ptr %29, i64 24
  %40 = load i32, ptr %39, align 8
  %41 = zext i32 %40 to i64
  %42 = mul nsw i64 %35, %41
  %43 = icmp ult i64 %42, 65536
  br i1 %43, label %_ZN8nanobind6detail8load_intItLb0EEEbP7_objectjPT_.exit.sink.split, label %_ZN8nanobind6detail8load_intItLb0EEEbP7_objectjPT_.exit, !prof !4

44:                                               ; preds = %33
  %45 = invoke i64 @PyLong_AsUnsignedLong(ptr noundef nonnull %29)
          to label %46 unwind label %53

46:                                               ; preds = %44
  %47 = icmp eq i64 %45, -1
  br i1 %47, label %48, label %52

48:                                               ; preds = %46
  %49 = invoke ptr @PyErr_Occurred()
          to label %50 unwind label %53

50:                                               ; preds = %48
  %.not17.i = icmp eq ptr %49, null
  br i1 %.not17.i, label %_ZN8nanobind6detail8load_intItLb0EEEbP7_objectjPT_.exit, label %51

51:                                               ; preds = %50
  invoke void @PyErr_Clear()
          to label %_ZN8nanobind6detail8load_intItLb0EEEbP7_objectjPT_.exit unwind label %53

52:                                               ; preds = %46
  %.not18.i = icmp ult i64 %45, 65536
  br i1 %.not18.i, label %_ZN8nanobind6detail8load_intItLb0EEEbP7_objectjPT_.exit.sink.split, label %_ZN8nanobind6detail8load_intItLb0EEEbP7_objectjPT_.exit

53:                                               ; preds = %51, %48, %44
  %54 = landingpad { ptr, i32 }
          catch ptr null
  %55 = extractvalue { ptr, i32 } %54, 0
  tail call void @__clang_call_terminate(ptr %55) #29
  unreachable

_ZN8nanobind6detail8load_intItLb0EEEbP7_objectjPT_.exit.sink.split: ; preds = %52, %38
  %.sink17 = phi i64 [ %42, %38 ], [ %45, %52 ]
  %56 = trunc nuw i64 %.sink17 to i16
  store i16 %56, ptr %2, align 2
  br label %_ZN8nanobind6detail8load_intItLb0EEEbP7_objectjPT_.exit

_ZN8nanobind6detail8load_intItLb0EEEbP7_objectjPT_.exit: ; preds = %_ZN8nanobind6detail8load_intItLb0EEEbP7_objectjPT_.exit.sink.split, %50, %31, %38, %51, %52
  %.4.i3 = phi i1 [ false, %38 ], [ false, %51 ], [ false, %52 ], [ false, %31 ], [ false, %50 ], [ true, %_ZN8nanobind6detail8load_intItLb0EEEbP7_objectjPT_.exit.sink.split ]
  %57 = load i64, ptr %29, align 8
  %58 = add nsw i64 %57, -1
  store i64 %58, ptr %29, align 8
  %.not.i7 = icmp eq i64 %58, 0
  br i1 %.not.i7, label %59, label %_ZN8nanobind6detail8load_intItLb1EEEbP7_objectjPT_.exit

59:                                               ; preds = %_ZN8nanobind6detail8load_intItLb0EEEbP7_objectjPT_.exit
  invoke void @_Py_Dealloc(ptr noundef nonnull %29)
          to label %_ZN8nanobind6detail8load_intItLb1EEEbP7_objectjPT_.exit unwind label %60

.invoke:                                          ; preds = %30, %22
  invoke void @PyErr_Clear()
          to label %_ZN8nanobind6detail8load_intItLb1EEEbP7_objectjPT_.exit unwind label %60

60:                                               ; preds = %.invoke, %59, %26, %28, %20, %16
  %61 = landingpad { ptr, i32 }
          catch ptr null
  %62 = extractvalue { ptr, i32 } %61, 0
  tail call void @__clang_call_terminate(ptr %62) #29
  unreachable

_ZN8nanobind6detail8load_intItLb1EEEbP7_objectjPT_.exit.sink.split: ; preds = %23, %10
  %.sink18 = phi i64 [ %14, %10 ], [ %17, %23 ]
  %63 = trunc nuw i64 %.sink18 to i16
  store i16 %63, ptr %2, align 2
  br label %_ZN8nanobind6detail8load_intItLb1EEEbP7_objectjPT_.exit

_ZN8nanobind6detail8load_intItLb1EEEbP7_objectjPT_.exit: ; preds = %_ZN8nanobind6detail8load_intItLb1EEEbP7_objectjPT_.exit.sink.split, %.invoke, %22, %59, %_ZN8nanobind6detail8load_intItLb0EEEbP7_objectjPT_.exit, %24, %_ZL19_PyObject_TypeCheckP7_objectP11_typeobject.exit, %10, %23
  %.4.i = phi i1 [ false, %10 ], [ false, %23 ], [ false, %_ZL19_PyObject_TypeCheckP7_objectP11_typeobject.exit ], [ false, %24 ], [ %.4.i3, %_ZN8nanobind6detail8load_intItLb0EEEbP7_objectjPT_.exit ], [ %.4.i3, %59 ], [ false, %22 ], [ false, %.invoke ], [ true, %_ZN8nanobind6detail8load_intItLb1EEEbP7_objectjPT_.exit.sink.split ]
  ret i1 %.4.i
}